; Function Attrs: nounwind uwtable
define internal noundef i32 @lj_cf_io_input(ptr noundef %0) #0 {
  %2 = getelementptr inbounds nuw i8, ptr %0, i64 32
  %3 = load ptr, ptr %2, align 8, !tbaa !25
  %4 = getelementptr inbounds nuw i8, ptr %0, i64 40
  %5 = load ptr, ptr %4, align 8, !tbaa !4
  %6 = icmp ult ptr %3, %5
  br i1 %6, label %7, label %35

7:                                                ; preds = %1
  %8 = load i64, ptr %3, align 8, !tbaa !14
  %9 = icmp eq i64 %8, -1
  br i1 %9, label %35, label %10

10:                                               ; preds = %7
  %.mask.i = and i64 %8, -140737488355328
  %11 = icmp eq i64 %.mask.i, -1829587348619264
  br i1 %11, label %12, label %24

12:                                               ; preds = %10
  %13 = and i64 %8, 140737488355327
  %14 = inttoptr i64 %13 to ptr
  %15 = getelementptr inbounds nuw i8, ptr %14, i64 10
  %16 = load i8, ptr %15, align 2, !tbaa !14
  %17 = icmp eq i8 %16, 1
  br i1 %17, label %io_tofilep.exit.i.i, label %18

18:                                               ; preds = %12
  tail call void @lj_err_argtype(ptr noundef nonnull %0, i32 noundef 1, ptr noundef nonnull @.str) #11
  unreachable

io_tofilep.exit.i.i:                              ; preds = %12
  %19 = getelementptr inbounds nuw i8, ptr %14, i64 48
  %20 = load ptr, ptr %19, align 8, !tbaa !20
  %21 = icmp eq ptr %20, null
  br i1 %21, label %22, label %io_tofile.exit.i

22:                                               ; preds = %io_tofilep.exit.i.i
  tail call void @lj_err_caller(ptr noundef nonnull %0, i32 noundef 1531) #11
  unreachable

io_tofile.exit.i:                                 ; preds = %io_tofilep.exit.i.i
  %23 = getelementptr inbounds nuw i8, ptr %3, i64 8
  store ptr %23, ptr %4, align 8, !tbaa !4
  br label %26

24:                                               ; preds = %10
  %25 = tail call fastcc ptr @io_file_open(ptr noundef nonnull %0, ptr noundef nonnull @.str.14)
  %.pre.i = load ptr, ptr %4, align 8, !tbaa !4
  br label %26

26:                                               ; preds = %24, %io_tofile.exit.i
  %27 = phi ptr [ %.pre.i, %24 ], [ %23, %io_tofile.exit.i ]
  %28 = getelementptr inbounds i8, ptr %27, i64 -8
  %29 = load i64, ptr %28, align 8, !tbaa !14
  %30 = and i64 %29, 140737488355327
  %31 = getelementptr inbounds nuw i8, ptr %0, i64 16
  %32 = load i64, ptr %31, align 8, !tbaa !23
  %33 = inttoptr i64 %32 to ptr
  %34 = getelementptr inbounds nuw i8, ptr %33, i64 712
  store i64 %30, ptr %34, align 8, !tbaa !24
  br label %io_std_getset.exit

35:                                               ; preds = %7, %1
  %36 = getelementptr inbounds nuw i8, ptr %5, i64 8
  store ptr %36, ptr %4, align 8, !tbaa !4
  %37 = getelementptr inbounds nuw i8, ptr %0, i64 16
  %38 = load i64, ptr %37, align 8, !tbaa !23
  %39 = inttoptr i64 %38 to ptr
  %40 = getelementptr inbounds nuw i8, ptr %39, i64 712
  %41 = load i64, ptr %40, align 8, !tbaa !24
  %42 = or i64 %41, -1829587348619264
  store i64 %42, ptr %5, align 8, !tbaa !14
  br label %io_std_getset.exit

io_std_getset.exit:                               ; preds = %26, %35
  ret i32 1
}